(dp0
Vengine
p1
S'pdflatex'
p2
sVpackages
p3
c__builtin__
set
p4
((lp5
Vprisma
p6
aVsubfigure
p7
aVcdt/cdtBusiness
p8
aVcite
p9
aVenumerate
p10
aVragged2e
p11
atp12
Rp13
sVfiles_with_guttermarks
p14
g4
((lp15
V/Users/sramirezc/Desktop/TT/DocumentacionTTB064/ReporteTecnico/cu9/cu.tex
p16
aV/Users/sramirezc/Desktop/TT/DocumentacionTTB064/ReporteTecnico/cu8.2/cu.tex
p17
aV/Users/sramirezc/Desktop/TT/DocumentacionTTB064/ReporteTecnico/cu5.1.4.1/cu.tex
p18
aV/Users/sramirezc/Desktop/TT/DocumentacionTTB064/ReporteTecnico/cu7/iu.tex
p19
aV/Users/sramirezc/Desktop/TT/DocumentacionTTB064/ReporteTecnico/cu10.2/cu.tex
p20
aV/Users/sramirezc/Desktop/TT/DocumentacionTTB064/ReporteTecnico/cu10.2/iu.tex
p21
aV/Users/sramirezc/Desktop/TT/DocumentacionTTB064/ReporteTecnico/cu9.2/iu.tex
p22
aV/Users/sramirezc/Desktop/TT/DocumentacionTTB064/ReporteTecnico/cu5.1.3/cu.tex
p23
aV/Users/sramirezc/Desktop/TT/DocumentacionTTB064/ReporteTecnico/Avances/disenio.tex
p24
aV/Users/sramirezc/Desktop/TT/DocumentacionTTB064/ReporteTecnico/cu6.2/iu.tex
p25
aV/Users/sramirezc/Desktop/TT/DocumentacionTTB064/ReporteTecnico/cu6/iu.tex
p26
aV/Users/sramirezc/Desktop/TT/DocumentacionTTB064/ReporteTecnico/cu8.4/cu.tex
p27
aV/Users/sramirezc/Desktop/TT/DocumentacionTTB064/ReporteTecnico/cu5.1.1/cu.tex
p28
aV/Users/sramirezc/Desktop/TT/DocumentacionTTB064/ReporteTecnico/cu14/cu.tex
p29
aV/Users/sramirezc/Desktop/TT/DocumentacionTTB064/ReporteTecnico/cu1.2/cu.tex
p30
aV/Users/sramirezc/Desktop/TT/DocumentacionTTB064/ReporteTecnico/cu10/cu.tex
p31
aV/Users/sramirezc/Desktop/TT/DocumentacionTTB064/ReporteTecnico/cu5.1.1.1.1/cu.tex
p32
aV/Users/sramirezc/Desktop/TT/DocumentacionTTB064/ReporteTecnico/cu11.1/cu.tex
p33
aV/Users/sramirezc/Desktop/TT/DocumentacionTTB064/ReporteTecnico/cu13/iu.tex
p34
aV/Users/sramirezc/Desktop/TT/DocumentacionTTB064/ReporteTecnico/cu1/iu.tex
p35
aV/Users/sramirezc/Desktop/TT/DocumentacionTTB064/ReporteTecnico/cu1.2/iu.tex
p36
aV/Users/sramirezc/Desktop/TT/DocumentacionTTB064/ReporteTecnico/cu5.1.1.2/iu.tex
p37
aV/Users/sramirezc/Desktop/TT/DocumentacionTTB064/ReporteTecnico/cu9.2/cu.tex
p38
aV/Users/sramirezc/Desktop/TT/DocumentacionTTB064/ReporteTecnico/cu7.1/iu.tex
p39
aV/Users/sramirezc/Desktop/TT/DocumentacionTTB064/ReporteTecnico/cu2.2/cu.tex
p40
aV/Users/sramirezc/Desktop/TT/DocumentacionTTB064/ReporteTecnico/ModeloNegocios/conceptualProyecto.tex
p41
aV/Users/sramirezc/Desktop/TT/DocumentacionTTB064/ReporteTecnico/cu11.1.2/iu.tex
p42
aV/Users/sramirezc/Desktop/TT/DocumentacionTTB064/ReporteTecnico/cu9/iu.tex
p43
aV/Users/sramirezc/Desktop/TT/DocumentacionTTB064/ReporteTecnico/cu9.1/cu.tex
p44
aV/Users/sramirezc/Desktop/TT/DocumentacionTTB064/ReporteTecnico/./cu5.1.1.1.3/cu.tex
p45
aV/Users/sramirezc/Desktop/TT/DocumentacionTTB064/ReporteTecnico/cu9.1/iu.tex
p46
aV/Users/sramirezc/Desktop/TT/DocumentacionTTB064/ReporteTecnico/cu5.4/cu.tex
p47
aV/Users/sramirezc/Desktop/ETS-WAD - Documentacio\u0301n/ReporteTecnico/arquitectura.tex
p48
aV/Users/sramirezc/Desktop/TT/DocumentacionTTB064/ReporteTecnico/cu10/iu.tex
p49
aV/Users/sramirezc/Desktop/TT/DocumentacionTTB064/ReporteTecnico/cu6/cu.tex
p50
aV/Users/sramirezc/Desktop/TT/DocumentacionTTB064/ReporteTecnico/cu5.4/iu.tex
p51
aV/Users/sramirezc/Desktop/TT/DocumentacionTTB064/ReporteTecnico/cu6.2/cu.tex
p52
aV/Users/sramirezc/Desktop/TT/DocumentacionTTB064/ReporteTecnico/cu1/cu.tex
p53
aV/Users/sramirezc/Desktop/TT/DocumentacionTTB064/ReporteTecnico/cu10.1/cu.tex
p54
aV/Users/sramirezc/Desktop/TT/DocumentacionTTB064/ReporteTecnico/cu11.4/iu.tex
p55
aV/Users/sramirezc/Desktop/TT/DocumentacionTTB064/ReporteTecnico/cu5.1.1.2/cu.tex
p56
aV/Users/sramirezc/Desktop/TT/DocumentacionTTB064/ReporteTecnico/cu6.3/cu.tex
p57
aV/Users/sramirezc/Desktop/TT/DocumentacionTTB064/ReporteTecnico/cu7/cu.tex
p58
aV/Users/sramirezc/Desktop/TT/DocumentacionTTB064/ReporteTecnico/cu11.2/cu.tex
p59
aV/Users/sramirezc/Desktop/TT/DocumentacionTTB064/ReporteTecnico/ModeloNegocios/conceptual.tex
p60
aV/Users/sramirezc/Desktop/TT/DocumentacionTTB064/ReporteTecnico/cu2.1/iu.tex
p61
aV/Users/sramirezc/Desktop/TT/DocumentacionTTB064/ReporteTecnico/cu10.1/iu.tex
p62
aV/Users/sramirezc/Desktop/TT/DocumentacionTTB064/ReporteTecnico/cu8/iu.tex
p63
aV/Users/sramirezc/Desktop/ETS-WAD - Documentacio\u0301n/ReporteTecnico/./reporte.tex
p64
aV/Users/sramirezc/Desktop/TT/DocumentacionTTB064/ReporteTecnico/ModeloNegocios/estados.tex
p65
aV/Users/sramirezc/Desktop/TT/DocumentacionTTB064/ReporteTecnico/cu11.1.2/cu.tex
p66
aV/Users/sramirezc/Desktop/TT/DocumentacionTTB064/ReporteTecnico/cu11/cu.tex
p67
aV/Users/sramirezc/Desktop/TT/DocumentacionTTB064/ReporteTecnico/cu5.1.4/cu.tex
p68
aV/Users/sramirezc/Desktop/TT/DocumentacionTTB064/ReporteTecnico/cu6.4/iu.tex
p69
aV/Users/sramirezc/Desktop/TT/DocumentacionTTB064/ReporteTecnico/cu11/iu.tex
p70
aV/Users/sramirezc/Desktop/TT/DocumentacionTTB064/ReporteTecnico/cu2/cu.tex
p71
aV/Users/sramirezc/Desktop/TT/DocumentacionTTB064/ReporteTecnico/./cu14/cu.tex
p72
aV/Users/sramirezc/Desktop/TT/DocumentacionTTB064/ReporteTecnico/cu5/cu.tex
p73
aV/Users/sramirezc/Desktop/TT/DocumentacionTTB064/ReporteTecnico/./cu13/cu.tex
p74
aV/Users/sramirezc/Desktop/TT/DocumentacionTTB064/ReporteTecnico/cu6.1/cu.tex
p75
aV/Users/sramirezc/Desktop/TT/DocumentacionTTB064/ReporteTecnico/cu8/cu.tex
p76
aV/Users/sramirezc/Desktop/TT/DocumentacionTTB064/ReporteTecnico/cu8.4/iu.tex
p77
aV/Users/sramirezc/Desktop/TT/DocumentacionTTB064/ReporteTecnico/cu11.1/iu.tex
p78
aV/Users/sramirezc/Desktop/TT/DocumentacionTTB064/ReporteTecnico/cu5.1.1/iu.tex
p79
aV/Users/sramirezc/Desktop/TT/DocumentacionTTB064/ReporteTecnico/MarcoTeorico/marcoTeorico.tex
p80
aV/Users/sramirezc/Desktop/TT/DocumentacionTTB064/ReporteTecnico/cu11.1.1/cu.tex
p81
aV/Users/sramirezc/Desktop/TT/DocumentacionTTB064/ReporteTecnico/cu2.1/cu.tex
p82
aV/Users/sramirezc/Desktop/TT/DocumentacionTTB064/ReporteTecnico/cu2.2/iu.tex
p83
aV/Users/sramirezc/Desktop/TT/DocumentacionTTB064/ReporteTecnico/cu1.1/iu.tex
p84
aV/Users/sramirezc/Desktop/TT/DocumentacionTTB064/ReporteTecnico/cu5.1.1.1.2/iu.tex
p85
aV/Users/sramirezc/Desktop/TT/DocumentacionTTB064/ReporteTecnico/cu8.1/cu.tex
p86
aV/Users/sramirezc/Desktop/TT/DocumentacionTTB064/ReporteTecnico/cu5.1.1.1.2/cu.tex
p87
aV/Users/sramirezc/Desktop/TT/DocumentacionTTB064/ReporteTecnico/cu7.4/iu.tex
p88
aV/Users/sramirezc/Desktop/TT/DocumentacionTTB064/ReporteTecnico/cu7.1/cu.tex
p89
aV/Users/sramirezc/Desktop/TT/DocumentacionTTB064/ReporteTecnico/cu10.4/iu.tex
p90
aV/Users/sramirezc/Desktop/TT/DocumentacionTTB064/ReporteTecnico/cu6.1.2/cu.tex
p91
aV/Users/sramirezc/Desktop/TT/DocumentacionTTB064/ReporteTecnico/cu5.2/cu.tex
p92
aV/Users/sramirezc/Desktop/TT/DocumentacionTTB064/ReporteTecnico/cu2/iu.tex
p93
aV/Users/sramirezc/Desktop/ETS-WAD - Documentacio\u0301n/ReporteTecnico/Avances/disenio.tex
p94
aV/Users/sramirezc/Desktop/TT/DocumentacionTTB064/ReporteTecnico/cu11.5/iu.tex
p95
aV/Users/sramirezc/Desktop/TT/DocumentacionTTB064/ReporteTecnico/cu5.1.3.1/iu.tex
p96
aV/Users/sramirezc/Desktop/TT/DocumentacionTTB064/ReporteTecnico/cu5.1.3.1/cu.tex
p97
aV/Users/sramirezc/Desktop/TT/DocumentacionTTB064/ReporteTecnico/cu11.1.1/iu.tex
p98
aV/Users/sramirezc/Desktop/TT/DocumentacionTTB064/ReporteTecnico/cu7.2/cu.tex
p99
aV/Users/sramirezc/Desktop/TT/DocumentacionTTB064/ReporteTecnico/cu5.1.4/iu.tex
p100
aV/Users/sramirezc/Desktop/TT/DocumentacionTTB064/ReporteTecnico/cu11.2/iu.tex
p101
aV/Users/sramirezc/Desktop/TT/DocumentacionTTB064/ReporteTecnico/cu5.1.4.1/iu.tex
p102
aV/Users/sramirezc/Desktop/TT/DocumentacionTTB064/ReporteTecnico/cu5.1.1.1/cu.tex
p103
aV/Users/sramirezc/Desktop/TT/DocumentacionTTB064/ReporteTecnico/cu5.1.2/cu.tex
p104
aV/Users/sramirezc/Desktop/ETS-WAD - Documentacio\u0301n/ReporteTecnico/./arquitectura.tex
p105
aV/Users/sramirezc/Desktop/TT/DocumentacionTTB064/ReporteTecnico/cu8.1/iu.tex
p106
aV/Users/sramirezc/Desktop/TT/DocumentacionTTB064/ReporteTecnico/cu14/iu.tex
p107
aV/Users/sramirezc/Desktop/TT/DocumentacionTTB064/ReporteTecnico/cu6.1.2/iu.tex
p108
aV/Users/sramirezc/Desktop/TT/DocumentacionTTB064/ReporteTecnico/cu5.1/cu.tex
p109
aV/Users/sramirezc/Desktop/TT/DocumentacionTTB064/ReporteTecnico/cu6.1.1/cu.tex
p110
aV/Users/sramirezc/Desktop/TT/DocumentacionTTB064/ReporteTecnico/cu1.1/cu.tex
p111
aV/Users/sramirezc/Desktop/TT/DocumentacionTTB064/ReporteTecnico/cu5.1/iu.tex
p112
aV/Users/sramirezc/Desktop/TT/DocumentacionTTB064/ReporteTecnico/./cu9.2/iu.tex
p113
aV/Users/sramirezc/Desktop/TT/DocumentacionTTB064/ReporteTecnico/cu5.1.2.1/iu.tex
p114
aV/Users/sramirezc/Desktop/TT/DocumentacionTTB064/ReporteTecnico/cu6.1.1/iu.tex
p115
aV/Users/sramirezc/Desktop/TT/DocumentacionTTB064/ReporteTecnico/cu5.1.2.1/cu.tex
p116
aV/Users/sramirezc/Desktop/TT/DocumentacionTTB064/ReporteTecnico/cu11.5/cu.tex
p117
aV/Users/sramirezc/Desktop/TT/DocumentacionTTB064/ReporteTecnico/cu13/cu.tex
p118
aV/Users/sramirezc/Desktop/TT/DocumentacionTTB064/ReporteTecnico/cu5.1.1.1.1/iu.tex
p119
aV/Users/sramirezc/Desktop/TT/DocumentacionTTB064/ReporteTecnico/cu7.2/iu.tex
p120
aV/Users/sramirezc/Desktop/TT/DocumentacionTTB064/ReporteTecnico/./cu6.2/cu.tex
p121
aV/Users/sramirezc/Desktop/TT/DocumentacionTTB064/ReporteTecnico/cu5.2/iu.tex
p122
aV/Users/sramirezc/Desktop/TT/DocumentacionTTB064/ReporteTecnico/./reporte.tex
p123
aV/Users/sramirezc/Desktop/TT/DocumentacionTTB064/ReporteTecnico/./cu11.2/iu.tex
p124
aV/Users/sramirezc/Desktop/TT/DocumentacionTTB064/ReporteTecnico/cu6.1/iu.tex
p125
aS'reporte.tex'
p126
aV/Users/sramirezc/Desktop/TT/DocumentacionTTB064/ReporteTecnico/cu5/iu.tex
p127
aV/Users/sramirezc/Desktop/TT/DocumentacionTTB064/ReporteTecnico/cu5.1.1.1/iu.tex
p128
aV/Users/sramirezc/Desktop/TT/DocumentacionTTB064/ReporteTecnico/cu8.2/iu.tex
p129
atp130
Rp131
sVsynctex
p132
I01
s.